target datalayout = "e-m:e-p270:32:32-p271:32:32-p272:64:64-i64:64-i128:128-f80:128-n8:16:32:64-S128"
target triple = "x86_64-pc-linux-gnu"

%class.QString = type { ptr }
%"class.vcg::Point3" = type { [3 x float] }
%class.PickPointsDialog = type { %class.QDockWidget, i32, %"class.Ui::pickpointsDialog", %"class.std::vector.16", ptr, ptr, i8, %class.QString, ptr, ptr, ptr, i32, ptr, %"class.vcg::Point3", %"class.vcg::Point3", i8, %class.QString }
%class.QDockWidget = type { %class.QWidget }
%class.QWidget = type { %class.QObject, %class.QPaintDevice, ptr }
%class.QObject = type { ptr, %class.QScopedPointer }
%class.QScopedPointer = type { ptr }
%class.QPaintDevice = type { ptr, i16, ptr }
%"class.Ui::pickpointsDialog" = type { %class.Ui_pickpointsDialog }
%class.Ui_pickpointsDialog = type { ptr, ptr, ptr, ptr, ptr, ptr, ptr, ptr, ptr, ptr, ptr, ptr, ptr, ptr, ptr, ptr, ptr, ptr, ptr, ptr, ptr, ptr, ptr, ptr, ptr, ptr, ptr, ptr, ptr, ptr, ptr, ptr, ptr, ptr }
%"class.std::vector.16" = type { %"struct.std::_Vector_base.17" }
%"struct.std::_Vector_base.17" = type { %"struct.std::_Vector_base<PickedPointTreeWidgetItem *, std::allocator<PickedPointTreeWidgetItem *>>::_Vector_impl" }
%"struct.std::_Vector_base<PickedPointTreeWidgetItem *, std::allocator<PickedPointTreeWidgetItem *>>::_Vector_impl" = type { %"struct.std::_Vector_base<PickedPointTreeWidgetItem *, std::allocator<PickedPointTreeWidgetItem *>>::_Vector_impl_data" }
%"struct.std::_Vector_base<PickedPointTreeWidgetItem *, std::allocator<PickedPointTreeWidgetItem *>>::_Vector_impl_data" = type { ptr, ptr, ptr }
%class.QCursor = type { ptr }

; Function Attrs: mustprogress uwtable
define void @_ZN16PickPointsDialog14toggleMoveModeEb(ptr noundef nonnull align 8 dereferenceable(464) %0, i1 noundef zeroext %1) #5 align 2 personality ptr @__gxx_personality_v0 {
  %3 = alloca ptr, align 8
  %4 = alloca i8, align 1
  %5 = alloca %class.QCursor, align 8
  %6 = alloca ptr, align 8
  %7 = alloca i32, align 4
  store ptr %0, ptr %3, align 8
  %8 = zext i1 %1 to i8
  store i8 %8, ptr %4, align 1
  %9 = load ptr, ptr %3, align 8
  %10 = load i8, ptr %4, align 1
  %11 = trunc i8 %10 to i1
  br i1 %11, label %12, label %22

12:                                               ; preds = %2
  call void @_ZN7QCursorC1EN2Qt11CursorShapeE(ptr noundef nonnull align 8 dereferenceable(8) %5, i32 noundef 18)
  invoke void @_ZN15QGuiApplication17setOverrideCursorERK7QCursor(ptr noundef nonnull align 8 dereferenceable(8) %5)
          to label %13 unwind label %18

13:                                               ; preds = %12
  call void @_ZN7QCursorD1Ev(ptr noundef nonnull align 8 dereferenceable(8) %5) #3
  %14 = getelementptr inbounds %class.PickPointsDialog, ptr %9, i32 0, i32 1
  store i32 1, ptr %14, align 8
  %15 = getelementptr inbounds %class.PickPointsDialog, ptr %9, i32 0, i32 2
  %16 = getelementptr inbounds %class.Ui_pickpointsDialog, ptr %15, i32 0, i32 6
  %17 = load ptr, ptr %16, align 8
  call void @_ZN15QAbstractButton10setCheckedEb(ptr noundef nonnull align 8 dereferenceable(48) %17, i1 noundef zeroext true)
  br label %22

18:                                               ; preds = %12
  %19 = landingpad { ptr, i32 }
          cleanup
  %20 = extractvalue { ptr, i32 } %19, 0
  store ptr %20, ptr %6, align 8
  %21 = extractvalue { ptr, i32 } %19, 1
  store i32 %21, ptr %7, align 4
  call void @_ZN7QCursorD1Ev(ptr noundef nonnull align 8 dereferenceable(8) %5) #3
  br label %23

22:                                               ; preds = %13, %2
  ret void

23:                                               ; preds = %18
  %24 = load ptr, ptr %6, align 8
  %25 = load i32, ptr %7, align 4
  %26 = insertvalue { ptr, i32 } poison, ptr %24, 0
  %27 = insertvalue { ptr, i32 } %26, i32 %25, 1
  resume { ptr, i32 } %27
}